; Function Attrs: mustprogress uwtable
define noundef range(i32 0, 2) i32 @_ZN7rocksdb16io_tracer_parserEiPPc(i32 noundef %0, ptr noundef %1) local_unnamed_addr #4 personality ptr @__gxx_personality_v0 {
  %3 = alloca i32, align 4
  %4 = alloca ptr, align 8
  %5 = alloca %"class.rocksdb::IOTraceRecordParser", align 8
  store i32 %0, ptr %3, align 4, !tbaa !57
  store ptr %1, ptr %4, align 8, !tbaa !103
  %6 = call noundef i32 @_ZN6google21ParseCommandLineFlagsEPiPPPcb(ptr noundef nonnull %3, ptr noundef nonnull %4, i1 noundef zeroext true)
  %7 = load ptr, ptr @_ZN3fLS19FLAGS_io_trace_fileB5cxx11E, align 8, !tbaa !106
  %8 = getelementptr inbounds nuw i8, ptr %7, i64 8
  %9 = load i64, ptr %8, align 8, !tbaa !14
  %10 = icmp eq i64 %9, 0
  br i1 %10, label %11, label %14

11:                                               ; preds = %2
  %12 = load ptr, ptr @stderr, align 8, !tbaa !24
  %13 = call i64 @fwrite(ptr nonnull @.str.22, i64 28, i64 1, ptr %12) #21
  br label %35

14:                                               ; preds = %2
  call void @llvm.lifetime.start.p0(i64 32, ptr nonnull %5) #18
  call void @_ZN7rocksdb19IOTraceRecordParserC1ERKNSt7__cxx1112basic_stringIcSt11char_traitsIcESaIcEEE(ptr noundef nonnull align 8 dereferenceable(32) %5, ptr noundef nonnull align 8 dereferenceable(32) %7)
  %15 = invoke noundef i32 @_ZN7rocksdb19IOTraceRecordParser18ReadIOTraceRecordsEv(ptr noundef nonnull align 8 dereferenceable(32) %5)
          to label %16 unwind label %25

16:                                               ; preds = %14
  %17 = load ptr, ptr %5, align 8, !tbaa !9
  %18 = getelementptr inbounds nuw i8, ptr %5, i64 16
  %19 = icmp eq ptr %17, %18
  br i1 %19, label %_ZNKSt7__cxx1112basic_stringIcSt11char_traitsIcESaIcEE11_M_is_localEv.exit.thread.i.i.i, label %_ZNKSt7__cxx1112basic_stringIcSt11char_traitsIcESaIcEE11_M_is_localEv.exit.i.i.i

_ZNKSt7__cxx1112basic_stringIcSt11char_traitsIcESaIcEE11_M_is_localEv.exit.thread.i.i.i: ; preds = %16
  %20 = getelementptr inbounds nuw i8, ptr %5, i64 8
  %21 = load i64, ptr %20, align 8, !tbaa !14
  %22 = icmp ult i64 %21, 16
  call void @llvm.assume(i1 %22)
  br label %_ZN7rocksdb19IOTraceRecordParserD2Ev.exit

_ZNKSt7__cxx1112basic_stringIcSt11char_traitsIcESaIcEE11_M_is_localEv.exit.i.i.i: ; preds = %16
  %23 = load i64, ptr %18, align 8, !tbaa !15
  %24 = add i64 %23, 1
  call void @_ZdlPvm(ptr noundef %17, i64 noundef %24) #17
  br label %_ZN7rocksdb19IOTraceRecordParserD2Ev.exit

_ZN7rocksdb19IOTraceRecordParserD2Ev.exit:        ; preds = %_ZNKSt7__cxx1112basic_stringIcSt11char_traitsIcESaIcEE11_M_is_localEv.exit.thread.i.i.i, %_ZNKSt7__cxx1112basic_stringIcSt11char_traitsIcESaIcEE11_M_is_localEv.exit.i.i.i
  call void @llvm.lifetime.end.p0(i64 32, ptr nonnull %5) #18
  br label %35

25:                                               ; preds = %14
  %26 = landingpad { ptr, i32 }
          cleanup
  %27 = load ptr, ptr %5, align 8, !tbaa !9
  %28 = getelementptr inbounds nuw i8, ptr %5, i64 16
  %29 = icmp eq ptr %27, %28
  br i1 %29, label %_ZNKSt7__cxx1112basic_stringIcSt11char_traitsIcESaIcEE11_M_is_localEv.exit.thread.i.i.i3, label %_ZNKSt7__cxx1112basic_stringIcSt11char_traitsIcESaIcEE11_M_is_localEv.exit.i.i.i2

_ZNKSt7__cxx1112basic_stringIcSt11char_traitsIcESaIcEE11_M_is_localEv.exit.thread.i.i.i3: ; preds = %25
  %30 = getelementptr inbounds nuw i8, ptr %5, i64 8
  %31 = load i64, ptr %30, align 8, !tbaa !14
  %32 = icmp ult i64 %31, 16
  call void @llvm.assume(i1 %32)
  br label %_ZN7rocksdb19IOTraceRecordParserD2Ev.exit4

_ZNKSt7__cxx1112basic_stringIcSt11char_traitsIcESaIcEE11_M_is_localEv.exit.i.i.i2: ; preds = %25
  %33 = load i64, ptr %28, align 8, !tbaa !15
  %34 = add i64 %33, 1
  call void @_ZdlPvm(ptr noundef %27, i64 noundef %34) #17
  br label %_ZN7rocksdb19IOTraceRecordParserD2Ev.exit4

_ZN7rocksdb19IOTraceRecordParserD2Ev.exit4:       ; preds = %_ZNKSt7__cxx1112basic_stringIcSt11char_traitsIcESaIcEE11_M_is_localEv.exit.thread.i.i.i3, %_ZNKSt7__cxx1112basic_stringIcSt11char_traitsIcESaIcEE11_M_is_localEv.exit.i.i.i2
  call void @llvm.lifetime.end.p0(i64 32, ptr nonnull %5) #18
  resume { ptr, i32 } %26

35:                                               ; preds = %_ZN7rocksdb19IOTraceRecordParserD2Ev.exit, %11
  %.0 = phi i32 [ 1, %11 ], [ %15, %_ZN7rocksdb19IOTraceRecordParserD2Ev.exit ]
  ret i32 %.0
}